target datalayout = "e-m:e-p270:32:32-p271:32:32-p272:64:64-i64:64-i128:128-f80:128-n8:16:32:64-S128"
target triple = "x86_64-pc-linux-gnu"

@.str = private unnamed_addr constant [9 x i8] c"No error\00", align 1
@.str.26 = private unnamed_addr constant [14 x i8] c"Out of memory\00", align 1
@.str.96 = private unnamed_addr constant [21 x i8] c"Unknown share option\00", align 1
@.str.97 = private unnamed_addr constant [23 x i8] c"Share currently in use\00", align 1
@.str.98 = private unnamed_addr constant [21 x i8] c"Invalid share handle\00", align 1
@.str.99 = private unnamed_addr constant [36 x i8] c"Feature not enabled in this library\00", align 1
@.str.100 = private unnamed_addr constant [19 x i8] c"CURLSHcode unknown\00", align 1

; Function Attrs: nounwind uwtable
define ptr @curl_share_strerror(i32 noundef %0) #0 {
  %2 = alloca ptr, align 8
  %3 = alloca i32, align 4
  store i32 %0, ptr %3, align 4, !tbaa !3
  %4 = load i32, ptr %3, align 4, !tbaa !3
  switch i32 %4, label %11 [
    i32 0, label %5
    i32 1, label %6
    i32 2, label %7
    i32 3, label %8
    i32 4, label %9
    i32 5, label %10
    i32 6, label %11
  ]

5:                                                ; preds = %1
  store ptr @.str, ptr %2, align 8
  br label %12

6:                                                ; preds = %1
  store ptr @.str.96, ptr %2, align 8
  br label %12

7:                                                ; preds = %1
  store ptr @.str.97, ptr %2, align 8
  br label %12

8:                                                ; preds = %1
  store ptr @.str.98, ptr %2, align 8
  br label %12

9:                                                ; preds = %1
  store ptr @.str.26, ptr %2, align 8
  br label %12

10:                                               ; preds = %1
  store ptr @.str.99, ptr %2, align 8
  br label %12

11:                                               ; preds = %1, %1
  store ptr @.str.100, ptr %2, align 8
  br label %12

12:                                               ; preds = %11, %10, %9, %8, %7, %6, %5
  %13 = load ptr, ptr %2, align 8
  ret ptr %13
}